target datalayout = "e-m:e-p270:32:32-p271:32:32-p272:64:64-i64:64-i128:128-f80:128-n8:16:32:64-S128"
target triple = "x86_64-pc-linux-gnu"

@.str = private unnamed_addr constant [20 x i8] c"%d, // %3d  0x%02X\0A\00", align 1
@.str.1 = private unnamed_addr constant [29 x i8] c"Total number of MUXes = %d.\0A\00", align 1
@Abc_NtkFuncHasVar.s_Truth = internal global [3 x i32] [i32 170, i32 204, i32 240], align 4
@Abc_NtkFuncCof0.s_Truth = internal global [3 x i32] [i32 170, i32 204, i32 240], align 4
@Abc_NtkFuncCof1.s_Truth = internal global [3 x i32] [i32 170, i32 204, i32 240], align 4

; Function Attrs: inlinehint nounwind uwtable
define internal i32 @Abc_NtkFuncHasVar(i32 noundef %0, i32 noundef %1) #2 {
  %3 = alloca i32, align 4
  %4 = alloca i32, align 4
  store i32 %0, ptr %3, align 4, !tbaa !3
  store i32 %1, ptr %4, align 4, !tbaa !3
  %5 = load i32, ptr %3, align 4, !tbaa !3
  %6 = load i32, ptr %4, align 4, !tbaa !3
  %7 = sext i32 %6 to i64
  %8 = getelementptr inbounds [3 x i32], ptr @Abc_NtkFuncHasVar.s_Truth, i64 0, i64 %7
  %9 = load i32, ptr %8, align 4, !tbaa !3
  %10 = and i32 %5, %9
  %11 = load i32, ptr %4, align 4, !tbaa !3
  %12 = shl i32 1, %11
  %13 = ashr i32 %10, %12
  %14 = load i32, ptr %3, align 4, !tbaa !3
  %15 = load i32, ptr %4, align 4, !tbaa !3
  %16 = sext i32 %15 to i64
  %17 = getelementptr inbounds [3 x i32], ptr @Abc_NtkFuncHasVar.s_Truth, i64 0, i64 %16
  %18 = load i32, ptr %17, align 4, !tbaa !3
  %19 = xor i32 %18, -1
  %20 = and i32 %14, %19
  %21 = icmp ne i32 %13, %20
  %22 = zext i1 %21 to i32
  ret i32 %22
}

; Function Attrs: inlinehint nounwind uwtable
define internal i32 @Abc_NtkFuncCof1(i32 noundef %0, i32 noundef %1) #2 {
  %3 = alloca i32, align 4
  %4 = alloca i32, align 4
  store i32 %0, ptr %3, align 4, !tbaa !3
  store i32 %1, ptr %4, align 4, !tbaa !3
  %5 = load i32, ptr %3, align 4, !tbaa !3
  %6 = load i32, ptr %4, align 4, !tbaa !3
  %7 = sext i32 %6 to i64
  %8 = getelementptr inbounds [3 x i32], ptr @Abc_NtkFuncCof1.s_Truth, i64 0, i64 %7
  %9 = load i32, ptr %8, align 4, !tbaa !3
  %10 = and i32 %5, %9
  %11 = load i32, ptr %3, align 4, !tbaa !3
  %12 = load i32, ptr %4, align 4, !tbaa !3
  %13 = sext i32 %12 to i64
  %14 = getelementptr inbounds [3 x i32], ptr @Abc_NtkFuncCof1.s_Truth, i64 0, i64 %13
  %15 = load i32, ptr %14, align 4, !tbaa !3
  %16 = and i32 %11, %15
  %17 = load i32, ptr %4, align 4, !tbaa !3
  %18 = shl i32 1, %17
  %19 = ashr i32 %16, %18
  %20 = or i32 %10, %19
  %21 = and i32 255, %20
  ret i32 %21
}

; Function Attrs: inlinehint nounwind uwtable
define internal i32 @Abc_NtkFuncCof0(i32 noundef %0, i32 noundef %1) #2 {
  %3 = alloca i32, align 4
  %4 = alloca i32, align 4
  store i32 %0, ptr %3, align 4, !tbaa !3
  store i32 %1, ptr %4, align 4, !tbaa !3
  %5 = load i32, ptr %3, align 4, !tbaa !3
  %6 = load i32, ptr %4, align 4, !tbaa !3
  %7 = sext i32 %6 to i64
  %8 = getelementptr inbounds [3 x i32], ptr @Abc_NtkFuncCof0.s_Truth, i64 0, i64 %7
  %9 = load i32, ptr %8, align 4, !tbaa !3
  %10 = xor i32 %9, -1
  %11 = and i32 %5, %10
  %12 = load i32, ptr %3, align 4, !tbaa !3
  %13 = load i32, ptr %4, align 4, !tbaa !3
  %14 = sext i32 %13 to i64
  %15 = getelementptr inbounds [3 x i32], ptr @Abc_NtkFuncCof0.s_Truth, i64 0, i64 %14
  %16 = load i32, ptr %15, align 4, !tbaa !3
  %17 = xor i32 %16, -1
  %18 = and i32 %12, %17
  %19 = load i32, ptr %4, align 4, !tbaa !3
  %20 = shl i32 1, %19
  %21 = shl i32 %18, %20
  %22 = or i32 %11, %21
  %23 = and i32 255, %22
  ret i32 %23
}

; Function Attrs: inlinehint nounwind uwtable
define internal i32 @Abc_NtkFuncSuppSize(i32 noundef %0) #2 {
  %2 = alloca i32, align 4
  store i32 %0, ptr %2, align 4, !tbaa !3
  %3 = load i32, ptr %2, align 4, !tbaa !3
  %4 = call i32 @Abc_NtkFuncHasVar(i32 noundef %3, i32 noundef 0)
  %5 = load i32, ptr %2, align 4, !tbaa !3
  %6 = call i32 @Abc_NtkFuncHasVar(i32 noundef %5, i32 noundef 1)
  %7 = add nsw i32 %4, %6
  %8 = load i32, ptr %2, align 4, !tbaa !3
  %9 = call i32 @Abc_NtkFuncHasVar(i32 noundef %8, i32 noundef 2)
  %10 = add nsw i32 %7, %9
  ret i32 %10
}

; Function Attrs: nounwind uwtable
define void @Abc_NtkCutCostMuxPrecompute() #0 {
  %1 = alloca i32, align 4
  %2 = alloca i32, align 4
  %3 = alloca i32, align 4
  call void @llvm.lifetime.start.p0(i64 4, ptr %1) #4
  call void @llvm.lifetime.start.p0(i64 4, ptr %2) #4
  call void @llvm.lifetime.start.p0(i64 4, ptr %3) #4
  store i32 0, ptr %3, align 4, !tbaa !3
  store i32 0, ptr %1, align 4, !tbaa !3
  br label %4

4:                                                ; preds = %51, %0
  %5 = load i32, ptr %1, align 4, !tbaa !3
  %6 = icmp slt i32 %5, 256
  br i1 %6, label %7, label %54

7:                                                ; preds = %4
  store i32 0, ptr %2, align 4, !tbaa !3
  %8 = load i32, ptr %1, align 4, !tbaa !3
  %9 = call i32 @Abc_NtkFuncSuppSize(i32 noundef %8)
  %10 = icmp slt i32 %9, 3
  br i1 %10, label %11, label %12

11:                                               ; preds = %7
  store i32 1, ptr %2, align 4, !tbaa !3
  br label %46

12:                                               ; preds = %7
  %13 = load i32, ptr %1, align 4, !tbaa !3
  %14 = call i32 @Abc_NtkFuncCof0(i32 noundef %13, i32 noundef 0)
  %15 = call i32 @Abc_NtkFuncSuppSize(i32 noundef %14)
  %16 = icmp eq i32 %15, 1
  br i1 %16, label %17, label %22

17:                                               ; preds = %12
  %18 = load i32, ptr %1, align 4, !tbaa !3
  %19 = call i32 @Abc_NtkFuncCof1(i32 noundef %18, i32 noundef 0)
  %20 = call i32 @Abc_NtkFuncSuppSize(i32 noundef %19)
  %21 = icmp eq i32 %20, 1
  br i1 %21, label %42, label %22

22:                                               ; preds = %17, %12
  %23 = load i32, ptr %1, align 4, !tbaa !3
  %24 = call i32 @Abc_NtkFuncCof0(i32 noundef %23, i32 noundef 1)
  %25 = call i32 @Abc_NtkFuncSuppSize(i32 noundef %24)
  %26 = icmp eq i32 %25, 1
  br i1 %26, label %27, label %32

27:                                               ; preds = %22
  %28 = load i32, ptr %1, align 4, !tbaa !3
  %29 = call i32 @Abc_NtkFuncCof1(i32 noundef %28, i32 noundef 1)
  %30 = call i32 @Abc_NtkFuncSuppSize(i32 noundef %29)
  %31 = icmp eq i32 %30, 1
  br i1 %31, label %42, label %32

32:                                               ; preds = %27, %22
  %33 = load i32, ptr %1, align 4, !tbaa !3
  %34 = call i32 @Abc_NtkFuncCof0(i32 noundef %33, i32 noundef 2)
  %35 = call i32 @Abc_NtkFuncSuppSize(i32 noundef %34)
  %36 = icmp eq i32 %35, 1
  br i1 %36, label %37, label %45

37:                                               ; preds = %32
  %38 = load i32, ptr %1, align 4, !tbaa !3
  %39 = call i32 @Abc_NtkFuncCof1(i32 noundef %38, i32 noundef 2)
  %40 = call i32 @Abc_NtkFuncSuppSize(i32 noundef %39)
  %41 = icmp eq i32 %40, 1
  br i1 %41, label %42, label %45

42:                                               ; preds = %37, %27, %17
  store i32 1, ptr %2, align 4, !tbaa !3
  %43 = load i32, ptr %3, align 4, !tbaa !3
  %44 = add nsw i32 %43, 1
  store i32 %44, ptr %3, align 4, !tbaa !3
  br label %45

45:                                               ; preds = %42, %37, %32
  br label %46

46:                                               ; preds = %45, %11
  %47 = load i32, ptr %2, align 4, !tbaa !3
  %48 = load i32, ptr %1, align 4, !tbaa !3
  %49 = load i32, ptr %1, align 4, !tbaa !3
  %50 = call i32 (ptr, ...) @printf(ptr noundef @.str, i32 noundef %47, i32 noundef %48, i32 noundef %49)
  br label %51

51:                                               ; preds = %46
  %52 = load i32, ptr %1, align 4, !tbaa !3
  %53 = add nsw i32 %52, 1
  store i32 %53, ptr %1, align 4, !tbaa !3
  br label %4, !llvm.loop !7

54:                                               ; preds = %4
  %55 = load i32, ptr %3, align 4, !tbaa !3
  %56 = call i32 (ptr, ...) @printf(ptr noundef @.str.1, i32 noundef %55)
  call void @llvm.lifetime.end.p0(i64 4, ptr %3) #4
  call void @llvm.lifetime.end.p0(i64 4, ptr %2) #4
  call void @llvm.lifetime.end.p0(i64 4, ptr %1) #4
  ret void
}