; Function Attrs: nofree nounwind uwtable
define void @Abc_NtkCutCostMuxPrecompute() local_unnamed_addr #0 {
  br label %1

1:                                                ; preds = %0, %99
  %.018 = phi i32 [ 0, %0 ], [ %.1, %99 ]
  %.01516 = phi i32 [ 0, %0 ], [ %101, %99 ]
  %2 = lshr i32 %.01516, 1
  %3 = and i32 %2, 85
  %4 = and i32 %.01516, 85
  %5 = icmp ne i32 %3, %4
  %6 = zext i1 %5 to i32
  %7 = lshr i32 %.01516, 2
  %8 = and i32 %7, 51
  %9 = and i32 %.01516, 51
  %10 = icmp ne i32 %8, %9
  %11 = zext i1 %10 to i32
  %12 = lshr i32 %.01516, 4
  %13 = and i32 %.01516, 15
  %14 = icmp ne i32 %12, %13
  %15 = zext i1 %14 to i32
  %16 = add nuw nsw i32 %11, %15
  %17 = add nuw nsw i32 %16, %6
  %.not = icmp eq i32 %17, 3
  br i1 %.not, label %18, label %99

18:                                               ; preds = %1
  %19 = mul nuw nsw i32 %4, 3
  %20 = lshr i32 %19, 2
  %21 = xor i32 %20, %19
  %22 = and i32 %21, 51
  %23 = icmp ne i32 %22, 0
  %24 = lshr i32 %19, 4
  %25 = and i32 %19, 15
  %26 = icmp ne i32 %24, %25
  %27 = xor i1 %26, %23
  br i1 %27, label %28, label %46

28:                                               ; preds = %18
  %29 = and i32 %.01516, 170
  %30 = lshr exact i32 %29, 1
  %31 = or disjoint i32 %30, %29
  %32 = icmp ne i32 %3, %30
  %33 = zext i1 %32 to i32
  %34 = lshr i32 %31, 2
  %35 = xor i32 %34, %31
  %36 = and i32 %35, 51
  %37 = icmp ne i32 %36, 0
  %38 = zext i1 %37 to i32
  %39 = lshr i32 %31, 4
  %40 = and i32 %31, 15
  %41 = icmp ne i32 %39, %40
  %42 = zext i1 %41 to i32
  %43 = add nuw nsw i32 %42, %33
  %44 = add nuw nsw i32 %43, %38
  %45 = icmp eq i32 %44, 1
  br i1 %45, label %97, label %46

46:                                               ; preds = %28, %18
  %47 = mul nuw nsw i32 %9, 5
  %48 = lshr i32 %47, 1
  %49 = xor i32 %48, %47
  %50 = and i32 %49, 85
  %51 = icmp ne i32 %50, 0
  %52 = lshr i32 %47, 4
  %53 = and i32 %47, 15
  %54 = icmp ne i32 %52, %53
  %55 = xor i1 %54, %51
  br i1 %55, label %56, label %74

56:                                               ; preds = %46
  %57 = and i32 %.01516, 204
  %58 = lshr exact i32 %57, 2
  %59 = or disjoint i32 %58, %57
  %60 = lshr i32 %59, 1
  %61 = xor i32 %60, %59
  %62 = and i32 %61, 85
  %63 = icmp ne i32 %62, 0
  %64 = zext i1 %63 to i32
  %65 = icmp ne i32 %8, %58
  %66 = zext i1 %65 to i32
  %67 = lshr i32 %59, 4
  %68 = and i32 %59, 15
  %69 = icmp ne i32 %67, %68
  %70 = zext i1 %69 to i32
  %71 = add nuw nsw i32 %70, %66
  %72 = add nuw nsw i32 %71, %64
  %73 = icmp eq i32 %72, 1
  br i1 %73, label %97, label %74

74:                                               ; preds = %56, %46
  %75 = mul nuw nsw i32 %13, 17
  %76 = lshr i32 %75, 1
  %77 = xor i32 %76, %75
  %78 = and i32 %77, 85
  %79 = icmp ne i32 %78, 0
  %80 = lshr i32 %75, 2
  %81 = xor i32 %80, %75
  %82 = and i32 %81, 51
  %83 = icmp ne i32 %82, 0
  %84 = xor i1 %79, %83
  br i1 %84, label %85, label %99

85:                                               ; preds = %74
  %86 = and i32 %.01516, 240
  %87 = or disjoint i32 %12, %86
  %88 = lshr i32 %87, 1
  %89 = xor i32 %88, %87
  %90 = and i32 %89, 85
  %91 = icmp ne i32 %90, 0
  %92 = lshr i32 %87, 2
  %93 = xor i32 %92, %87
  %94 = and i32 %93, 51
  %95 = icmp ne i32 %94, 0
  %96 = xor i1 %95, %91
  br i1 %96, label %97, label %99

97:                                               ; preds = %85, %56, %28
  %98 = add nsw i32 %.018, 1
  br label %99

99:                                               ; preds = %1, %74, %85, %97
  %.014 = phi i32 [ 1, %97 ], [ 0, %85 ], [ 0, %74 ], [ 1, %1 ]
  %.1 = phi i32 [ %98, %97 ], [ %.018, %85 ], [ %.018, %74 ], [ %.018, %1 ]
  %100 = tail call i32 (ptr, ...) @printf(ptr noundef nonnull dereferenceable(1) @.str, i32 noundef %.014, i32 noundef %.01516, i32 noundef %.01516)
  %101 = add nuw nsw i32 %.01516, 1
  %exitcond.not = icmp eq i32 %101, 256
  br i1 %exitcond.not, label %102, label %1, !llvm.loop !3

102:                                              ; preds = %99
  %103 = tail call i32 (ptr, ...) @printf(ptr noundef nonnull dereferenceable(1) @.str.1, i32 noundef %.1)
  ret void
}